target datalayout = "e-m:e-p270:32:32-p271:32:32-p272:64:64-i64:64-i128:128-f80:128-n8:16:32:64-S128"
target triple = "x86_64-pc-linux-gnu"

; Function Attrs: nounwind uwtable
define dso_local i32 @strihash(ptr noundef %0) #0 {
  %2 = alloca ptr, align 8
  %3 = alloca i32, align 4
  %4 = alloca i32, align 4
  store ptr %0, ptr %2, align 8, !tbaa !4
  call void @llvm.lifetime.start.p0(i64 4, ptr %3) #9
  call void @llvm.lifetime.start.p0(i64 4, ptr %4) #9
  store i32 -2128831035, ptr %4, align 4, !tbaa !9
  br label %5

5:                                                ; preds = %20, %1
  %6 = load ptr, ptr %2, align 8, !tbaa !4
  %7 = getelementptr inbounds nuw i8, ptr %6, i32 1
  store ptr %7, ptr %2, align 8, !tbaa !4
  %8 = load i8, ptr %6, align 1, !tbaa !11
  %9 = zext i8 %8 to i32
  store i32 %9, ptr %3, align 4, !tbaa !9
  %10 = icmp ne i32 %9, 0
  br i1 %10, label %11, label %25

11:                                               ; preds = %5
  %12 = load i32, ptr %3, align 4, !tbaa !9
  %13 = icmp uge i32 %12, 97
  br i1 %13, label %14, label %20

14:                                               ; preds = %11
  %15 = load i32, ptr %3, align 4, !tbaa !9
  %16 = icmp ule i32 %15, 122
  br i1 %16, label %17, label %20

17:                                               ; preds = %14
  %18 = load i32, ptr %3, align 4, !tbaa !9
  %19 = sub i32 %18, 32
  store i32 %19, ptr %3, align 4, !tbaa !9
  br label %20

20:                                               ; preds = %17, %14, %11
  %21 = load i32, ptr %4, align 4, !tbaa !9
  %22 = mul i32 %21, 16777619
  %23 = load i32, ptr %3, align 4, !tbaa !9
  %24 = xor i32 %22, %23
  store i32 %24, ptr %4, align 4, !tbaa !9
  br label %5, !llvm.loop !14

25:                                               ; preds = %5
  %26 = load i32, ptr %4, align 4, !tbaa !9
  call void @llvm.lifetime.end.p0(i64 4, ptr %4) #9
  call void @llvm.lifetime.end.p0(i64 4, ptr %3) #9
  ret i32 %26
}