; Function Attrs: nofree norecurse nosync nounwind memory(argmem: read) uwtable
define dso_local i32 @strihash(ptr noundef readonly captures(none) %0) local_unnamed_addr #0 {
  %2 = load i8, ptr %0, align 1, !tbaa !4
  %.not10 = icmp eq i8 %2, 0
  br i1 %.not10, label %._crit_edge, label %.lr.ph

.lr.ph:                                           ; preds = %1, %.lr.ph
  %3 = phi i8 [ %10, %.lr.ph ], [ %2, %1 ]
  %.012 = phi i32 [ %9, %.lr.ph ], [ -2128831035, %1 ]
  %.0811 = phi ptr [ %5, %.lr.ph ], [ %0, %1 ]
  %4 = zext i8 %3 to i32
  %5 = getelementptr inbounds nuw i8, ptr %.0811, i64 1
  %6 = add i8 %3, -97
  %or.cond = icmp ult i8 %6, 26
  %7 = add nsw i32 %4, -32
  %spec.select = select i1 %or.cond, i32 %7, i32 %4
  %8 = mul i32 %.012, 16777619
  %9 = xor i32 %spec.select, %8
  %10 = load i8, ptr %5, align 1, !tbaa !4
  %.not = icmp eq i8 %10, 0
  br i1 %.not, label %._crit_edge, label %.lr.ph, !llvm.loop !9

._crit_edge:                                      ; preds = %.lr.ph, %1
  %.0.lcssa = phi i32 [ -2128831035, %1 ], [ %9, %.lr.ph ]
  ret i32 %.0.lcssa
}